target datalayout = "e-m:e-p270:32:32-p271:32:32-p272:64:64-i64:64-i128:128-f80:128-n8:16:32:64-S128"
target triple = "x86_64-pc-linux-gnu"

%struct.rb_iseq_struct = type { i64, i64, ptr, %union.anon.15 }
%union.anon.15 = type { %struct.anon.16 }
%struct.anon.16 = type { i64, i32 }
%struct.rb_iseq_constant_body = type { i32, i32, ptr, %struct.anon.18, %struct.rb_iseq_location_struct, %struct.iseq_insn_info, ptr, ptr, ptr, ptr, ptr, ptr, %struct.anon.19, i32, i32, i32, i32, i32, i32, i32, i32, i8, %union.anon.20, ptr, ptr, ptr, i64, ptr, i64, ptr, i64 }
%struct.anon.18 = type { %struct.anon, i32, i32, i32, i32, i32, i32, i32, ptr, ptr }
%struct.anon = type { i16, [2 x i8] }
%struct.rb_iseq_location_struct = type { i64, i64, i64, i32, i32, %struct.rb_code_location_struct }
%struct.rb_code_location_struct = type { %struct.rb_code_position_struct, %struct.rb_code_position_struct }
%struct.rb_code_position_struct = type { i32, i32 }
%struct.iseq_insn_info = type { ptr, ptr, i32, ptr }
%struct.anon.19 = type { i64, i64, i64, i64, ptr }
%union.anon.20 = type { ptr }
%struct.rb_callable_method_entry_struct = type { i64, i64, ptr, i64, i64 }
%struct.rb_callinfo = type { i64, ptr, i64, i64, i64 }
%struct.rb_method_definition_struct = type { i64, %union.anon, i64, i64 }
%union.anon = type { %struct.rb_method_cfunc_struct }
%struct.rb_method_cfunc_struct = type { ptr, ptr, i32 }
%struct.rb_method_iseq_struct = type { ptr, ptr }

; Function Attrs: inlinehint nounwind sspstrong uwtable
define internal zeroext i1 @vm_ci_packed_p(ptr noundef %0) #2 {
  %2 = alloca i1, align 1
  %3 = alloca ptr, align 8
  store ptr %0, ptr %3, align 8, !tbaa !142
  %4 = load ptr, ptr %3, align 8, !tbaa !142
  %5 = ptrtoint ptr %4 to i64
  %6 = and i64 %5, 1
  %7 = icmp ne i64 %6, 0
  %8 = xor i1 %7, true
  %9 = xor i1 %8, true
  %10 = zext i1 %9 to i32
  %11 = sext i32 %10 to i64
  %12 = call i64 @llvm.expect.i64(i64 %11, i64 1)
  %13 = icmp ne i64 %12, 0
  br i1 %13, label %14, label %15

14:                                               ; preds = %1
  store i1 true, ptr %2, align 1
  br label %16

15:                                               ; preds = %1
  store i1 false, ptr %2, align 1
  br label %16

16:                                               ; preds = %15, %14
  %17 = load i1, ptr %2, align 1
  ret i1 %17
}

; Function Attrs: nounwind sspstrong uwtable
define internal ptr @method_entry_iseqptr(ptr noundef %0) #0 {
  %2 = alloca ptr, align 8
  %3 = alloca ptr, align 8
  store ptr %0, ptr %3, align 8, !tbaa !113
  %4 = load ptr, ptr %3, align 8, !tbaa !113
  %5 = getelementptr inbounds nuw %struct.rb_callable_method_entry_struct, ptr %4, i32 0, i32 2
  %6 = load ptr, ptr %5, align 8, !tbaa !168
  %7 = load i64, ptr %6, align 8
  %8 = and i64 %7, 15
  %9 = trunc i64 %8 to i32
  switch i32 %9, label %17 [
    i32 0, label %10
  ]

10:                                               ; preds = %1
  %11 = load ptr, ptr %3, align 8, !tbaa !113
  %12 = getelementptr inbounds nuw %struct.rb_callable_method_entry_struct, ptr %11, i32 0, i32 2
  %13 = load ptr, ptr %12, align 8, !tbaa !168
  %14 = getelementptr inbounds nuw %struct.rb_method_definition_struct, ptr %13, i32 0, i32 1
  %15 = getelementptr inbounds nuw %struct.rb_method_iseq_struct, ptr %14, i32 0, i32 0
  %16 = load ptr, ptr %15, align 8, !tbaa !58
  store ptr %16, ptr %2, align 8
  br label %18

17:                                               ; preds = %1
  store ptr null, ptr %2, align 8
  br label %18

18:                                               ; preds = %17, %10
  %19 = load ptr, ptr %2, align 8
  ret ptr %19
}

; Function Attrs: inlinehint nounwind sspstrong uwtable
define internal i32 @vm_ci_argc(ptr noundef %0) #2 {
  %2 = alloca i32, align 4
  %3 = alloca ptr, align 8
  store ptr %0, ptr %3, align 8, !tbaa !142
  %4 = load ptr, ptr %3, align 8, !tbaa !142
  %5 = call zeroext i1 @vm_ci_packed_p(ptr noundef %4)
  br i1 %5, label %6, label %12

6:                                                ; preds = %1
  %7 = load ptr, ptr %3, align 8, !tbaa !142
  %8 = ptrtoint ptr %7 to i64
  %9 = lshr i64 %8, 1
  %10 = and i64 %9, 32767
  %11 = trunc i64 %10 to i32
  store i32 %11, ptr %2, align 4
  br label %17

12:                                               ; preds = %1
  %13 = load ptr, ptr %3, align 8, !tbaa !142
  %14 = getelementptr inbounds nuw %struct.rb_callinfo, ptr %13, i32 0, i32 4
  %15 = load i64, ptr %14, align 8, !tbaa !210
  %16 = trunc i64 %15 to i32
  store i32 %16, ptr %2, align 4
  br label %17

17:                                               ; preds = %12, %6
  %18 = load i32, ptr %2, align 4
  ret i32 %18
}

; Function Attrs: inlinehint nounwind sspstrong uwtable
define internal i32 @vm_ci_flag(ptr noundef %0) #2 {
  %2 = alloca i32, align 4
  %3 = alloca ptr, align 8
  store ptr %0, ptr %3, align 8, !tbaa !142
  %4 = load ptr, ptr %3, align 8, !tbaa !142
  %5 = call zeroext i1 @vm_ci_packed_p(ptr noundef %4)
  br i1 %5, label %6, label %12

6:                                                ; preds = %1
  %7 = load ptr, ptr %3, align 8, !tbaa !142
  %8 = ptrtoint ptr %7 to i64
  %9 = lshr i64 %8, 16
  %10 = and i64 %9, 65535
  %11 = trunc i64 %10 to i32
  store i32 %11, ptr %2, align 4
  br label %17

12:                                               ; preds = %1
  %13 = load ptr, ptr %3, align 8, !tbaa !142
  %14 = getelementptr inbounds nuw %struct.rb_callinfo, ptr %13, i32 0, i32 3
  %15 = load i64, ptr %14, align 8, !tbaa !171
  %16 = trunc i64 %15 to i32
  store i32 %16, ptr %2, align 4
  br label %17

17:                                               ; preds = %12, %6
  %18 = load i32, ptr %2, align 4
  ret i32 %18
}

; Function Attrs: nounwind sspstrong uwtable
define hidden ptr @rb_check_overloaded_cme(ptr noundef %0, ptr noundef %1) #0 {
  %3 = alloca ptr, align 8
  %4 = alloca ptr, align 8
  store ptr %0, ptr %3, align 8, !tbaa !113
  store ptr %1, ptr %4, align 8, !tbaa !142
  %5 = load ptr, ptr %3, align 8, !tbaa !113
  %6 = getelementptr inbounds nuw %struct.rb_callable_method_entry_struct, ptr %5, i32 0, i32 2
  %7 = load ptr, ptr %6, align 8, !tbaa !168
  %8 = load i64, ptr %7, align 8
  %9 = lshr i64 %8, 4
  %10 = and i64 %9, 1
  %11 = trunc i64 %10 to i32
  %12 = icmp ne i32 %11, 0
  %13 = xor i1 %12, true
  %14 = xor i1 %13, true
  %15 = zext i1 %14 to i32
  %16 = sext i32 %15 to i64
  %17 = call i64 @llvm.expect.i64(i64 %16, i64 0)
  %18 = icmp ne i64 %17, 0
  br i1 %18, label %19, label %47

19:                                               ; preds = %2
  %20 = load ptr, ptr %4, align 8, !tbaa !142
  %21 = call i32 @vm_ci_flag(ptr noundef %20)
  %22 = and i32 %21, 16
  %23 = icmp ne i32 %22, 0
  br i1 %23, label %24, label %47

24:                                               ; preds = %19
  %25 = load ptr, ptr %4, align 8, !tbaa !142
  %26 = call i32 @vm_ci_flag(ptr noundef %25)
  %27 = and i32 %26, 8192
  %28 = icmp ne i32 %27, 0
  br i1 %28, label %47, label %29

29:                                               ; preds = %24
  %30 = load ptr, ptr %4, align 8, !tbaa !142
  %31 = call i32 @vm_ci_argc(ptr noundef %30)
  %32 = load ptr, ptr %3, align 8, !tbaa !113
  %33 = call ptr @method_entry_iseqptr(ptr noundef %32)
  %34 = getelementptr inbounds nuw %struct.rb_iseq_struct, ptr %33, i32 0, i32 2
  %35 = load ptr, ptr %34, align 8, !tbaa !81
  %36 = getelementptr inbounds nuw %struct.rb_iseq_constant_body, ptr %35, i32 0, i32 3
  %37 = getelementptr inbounds nuw %struct.anon.18, ptr %36, i32 0, i32 2
  %38 = load i32, ptr %37, align 8, !tbaa !337
  %39 = icmp eq i32 %31, %38
  br i1 %39, label %40, label %47

40:                                               ; preds = %29
  %41 = load ptr, ptr %3, align 8, !tbaa !113
  %42 = call ptr @get_overloaded_cme(ptr noundef %41)
  store ptr %42, ptr %3, align 8, !tbaa !113
  %43 = load ptr, ptr %3, align 8, !tbaa !113
  %44 = getelementptr inbounds nuw %struct.rb_callable_method_entry_struct, ptr %43, i32 0, i32 0
  %45 = load i64, ptr %44, align 8, !tbaa !159
  %46 = or i64 %45, 1048576
  store i64 %46, ptr %44, align 8, !tbaa !159
  br label %47

47:                                               ; preds = %40, %29, %24, %19, %2
  %48 = load ptr, ptr %3, align 8, !tbaa !113
  ret ptr %48
}