; Function Attrs: nounwind sspstrong uwtable
define hidden noundef ptr @rb_check_overloaded_cme(ptr noundef %0, ptr noundef %1) local_unnamed_addr #2 {
  %3 = getelementptr inbounds nuw i8, ptr %0, i64 16
  %4 = load ptr, ptr %3, align 8, !tbaa !101
  %5 = load i64, ptr %4, align 8
  %6 = and i64 %5, 16
  %.not = icmp eq i64 %6, 0
  br i1 %.not, label %33, label %7, !prof !69

7:                                                ; preds = %2
  %8 = ptrtoint ptr %1 to i64
  %9 = and i64 %8, 1
  %.not.i.not.i = icmp eq i64 %9, 0
  br i1 %.not.i.not.i, label %vm_ci_flag.exit, label %vm_ci_flag.exit.thread

vm_ci_flag.exit:                                  ; preds = %7
  %10 = getelementptr inbounds nuw i8, ptr %1, i64 24
  %11 = load i64, ptr %10, align 8, !tbaa !169
  %12 = and i64 %11, 8208
  %or.cond21 = icmp eq i64 %12, 16
  br i1 %or.cond21, label %17, label %33

vm_ci_flag.exit.thread:                           ; preds = %7
  %13 = and i64 %8, 537919488
  %or.cond = icmp eq i64 %13, 1048576
  br i1 %or.cond, label %.thread20, label %33

.thread20:                                        ; preds = %vm_ci_flag.exit.thread
  %14 = trunc i64 %8 to i32
  %15 = lshr i32 %14, 1
  %16 = and i32 %15, 32767
  br label %vm_ci_argc.exit

17:                                               ; preds = %vm_ci_flag.exit
  %18 = getelementptr inbounds nuw i8, ptr %1, i64 32
  %19 = load i64, ptr %18, align 8, !tbaa !168
  %20 = trunc i64 %19 to i32
  br label %vm_ci_argc.exit

vm_ci_argc.exit:                                  ; preds = %.thread20, %17
  %.0.i14 = phi i32 [ %16, %.thread20 ], [ %20, %17 ]
  %21 = and i64 %5, 15
  %cond.i = icmp eq i64 %21, 0
  tail call void @llvm.assume(i1 %cond.i)
  %22 = getelementptr inbounds nuw i8, ptr %4, i64 8
  %23 = load ptr, ptr %22, align 8, !tbaa !26
  %24 = getelementptr inbounds nuw i8, ptr %23, i64 16
  %25 = load ptr, ptr %24, align 8, !tbaa !73
  %26 = getelementptr inbounds nuw i8, ptr %25, i64 24
  %27 = load i32, ptr %26, align 8, !tbaa !177
  %28 = icmp eq i32 %.0.i14, %27
  br i1 %28, label %29, label %33

29:                                               ; preds = %vm_ci_argc.exit
  %30 = tail call fastcc ptr @get_overloaded_cme(ptr noundef nonnull %0)
  %31 = load i64, ptr %30, align 8, !tbaa !167
  %32 = or i64 %31, 1048576
  store i64 %32, ptr %30, align 8, !tbaa !167
  br label %33

33:                                               ; preds = %vm_ci_flag.exit.thread, %29, %vm_ci_argc.exit, %vm_ci_flag.exit, %2
  %.0 = phi ptr [ %30, %29 ], [ %0, %vm_ci_argc.exit ], [ %0, %vm_ci_flag.exit ], [ %0, %2 ], [ %0, %vm_ci_flag.exit.thread ]
  ret ptr %.0
}